target datalayout = "e-m:e-p270:32:32-p271:32:32-p272:64:64-i64:64-i128:128-f80:128-n8:16:32:64-S128"
target triple = "x86_64-pc-linux-gnu"

%"struct.duckdb_hll::robj" = type { ptr }

; Function Attrs: mustprogress uwtable
define noundef i32 @_ZN10duckdb_hll9hll_countEPNS_4robjEPm(ptr noundef %0, ptr noundef %1) #2 {
  %3 = alloca ptr, align 8
  %4 = alloca ptr, align 8
  %5 = alloca i32, align 4
  store ptr %0, ptr %3, align 8, !tbaa !22
  store ptr %1, ptr %4, align 8, !tbaa !16
  call void @llvm.lifetime.start.p0(i64 4, ptr %5) #10
  store i32 0, ptr %5, align 4, !tbaa !7
  %6 = load ptr, ptr %3, align 8, !tbaa !22
  %7 = getelementptr inbounds nuw %"struct.duckdb_hll::robj", ptr %6, i32 0, i32 0
  %8 = load ptr, ptr %7, align 8, !tbaa !24
  %9 = call noundef i64 @_ZN10duckdb_hll8hllCountEPNS_6hllhdrEPi(ptr noundef %8, ptr noundef %5)
  %10 = load ptr, ptr %4, align 8, !tbaa !16
  store i64 %9, ptr %10, align 8, !tbaa !9
  %11 = load i32, ptr %5, align 4, !tbaa !7
  %12 = icmp eq i32 %11, 0
  %13 = select i1 %12, i32 0, i32 -1
  call void @llvm.lifetime.end.p0(i64 4, ptr %5) #10
  ret i32 %13
}