; Function Attrs: mustprogress nounwind uwtable
define noundef range(i32 -1, 1) i32 @_ZN10duckdb_hll9hll_countEPNS_4robjEPm(ptr noundef readonly captures(none) %0, ptr noundef writeonly captures(none) initializes((0, 8)) %1) local_unnamed_addr #10 {
  %3 = alloca i32, align 4
  call void @llvm.lifetime.start.p0(i64 4, ptr nonnull %3) #21
  store i32 0, ptr %3, align 4, !tbaa !11
  %4 = load ptr, ptr %0, align 8, !tbaa !14
  %5 = call noundef i64 @_ZN10duckdb_hll8hllCountEPNS_6hllhdrEPi(ptr noundef %4, ptr noundef nonnull %3)
  store i64 %5, ptr %1, align 8, !tbaa !3
  %6 = load i32, ptr %3, align 4, !tbaa !11
  %7 = icmp ne i32 %6, 0
  %8 = sext i1 %7 to i32
  call void @llvm.lifetime.end.p0(i64 4, ptr nonnull %3) #21
  ret i32 %8
}